target datalayout = "e-m:e-p270:32:32-p271:32:32-p272:64:64-i64:64-i128:128-f80:128-n8:16:32:64-S128"
target triple = "x86_64-pc-linux-gnu"

%struct.H5G_entry_t = type { i32, %union.H5G_cache_t, i64, i64 }
%union.H5G_cache_t = type { %struct.anon }
%struct.anon = type { i64, i64 }

@.str = private unnamed_addr constant [100 x i8] c"generated/home/dtcxzyw/WorkSpace/Projects/compilers/llvm-opt-benchmark/bench/hdf5/hdf5/src/H5Gent.c\00", align 1
@__func__.H5G__ent_decode_vec = private unnamed_addr constant [20 x i8] c"H5G__ent_decode_vec\00", align 1
@H5E_SYM_g = external global i64, align 8
@H5E_CANTDECODE_g = external global i64, align 8
@.str.1 = private unnamed_addr constant [36 x i8] c"ran off the end of the image buffer\00", align 1
@.str.2 = private unnamed_addr constant [13 x i8] c"can't decode\00", align 1

; Function Attrs: nounwind uwtable
define i32 @H5G__ent_decode_vec(ptr noundef %0, ptr noundef %1, ptr noundef %2, ptr noundef %3, i32 noundef %4) #0 {
  %6 = alloca ptr, align 8
  %7 = alloca ptr, align 8
  %8 = alloca ptr, align 8
  %9 = alloca ptr, align 8
  %10 = alloca i32, align 4
  %11 = alloca i32, align 4
  %12 = alloca i32, align 4
  %13 = alloca i8, align 1
  store ptr %0, ptr %6, align 8
  store ptr %1, ptr %7, align 8
  store ptr %2, ptr %8, align 8
  store ptr %3, ptr %9, align 8
  store i32 %4, ptr %10, align 4
  store i32 0, ptr %12, align 4
  store i8 0, ptr %13, align 1
  store i32 0, ptr %11, align 4
  br label %14

14:                                               ; preds = %64, %5
  %15 = load i32, ptr %11, align 4
  %16 = load i32, ptr %10, align 4
  %17 = icmp ult i32 %15, %16
  br i1 %17, label %18, label %67

18:                                               ; preds = %14
  %19 = load ptr, ptr %7, align 8
  %20 = load ptr, ptr %19, align 8
  %21 = load ptr, ptr %8, align 8
  %22 = icmp ugt ptr %20, %21
  br i1 %22, label %23, label %38

23:                                               ; preds = %18
  br label %24

24:                                               ; preds = %23
  br label %25

25:                                               ; preds = %24
  br label %26

26:                                               ; preds = %25
  %27 = load i64, ptr @H5E_SYM_g, align 8
  %28 = load i64, ptr @H5E_CANTDECODE_g, align 8
  %29 = call i32 (ptr, ptr, i32, i64, i64, ptr, ...) @H5E_printf_stack(ptr noundef @.str, ptr noundef @__func__.H5G__ent_decode_vec, i32 noundef 86, i64 noundef %27, i64 noundef %28, ptr noundef @.str.1)
  br label %30

30:                                               ; preds = %26
  store i8 1, ptr %13, align 1
  %31 = load i8, ptr %13, align 1
  %32 = trunc i8 %31 to i1
  %33 = zext i1 %32 to i8
  store i8 %33, ptr %13, align 1
  br label %34

34:                                               ; preds = %30
  br label %35

35:                                               ; preds = %34
  store i32 -1, ptr %12, align 4
  br label %68

36:                                               ; No predecessors!
  br label %37

37:                                               ; preds = %36
  br label %38

38:                                               ; preds = %37, %18
  %39 = load ptr, ptr %6, align 8
  %40 = load ptr, ptr %7, align 8
  %41 = load ptr, ptr %9, align 8
  %42 = load i32, ptr %11, align 4
  %43 = zext i32 %42 to i64
  %44 = getelementptr inbounds %struct.H5G_entry_t, ptr %41, i64 %43
  %45 = load ptr, ptr %8, align 8
  %46 = call i32 @H5G_ent_decode(ptr noundef %39, ptr noundef %40, ptr noundef %44, ptr noundef %45)
  %47 = icmp slt i32 %46, 0
  br i1 %47, label %48, label %63

48:                                               ; preds = %38
  br label %49

49:                                               ; preds = %48
  br label %50

50:                                               ; preds = %49
  br label %51

51:                                               ; preds = %50
  %52 = load i64, ptr @H5E_SYM_g, align 8
  %53 = load i64, ptr @H5E_CANTDECODE_g, align 8
  %54 = call i32 (ptr, ptr, i32, i64, i64, ptr, ...) @H5E_printf_stack(ptr noundef @.str, ptr noundef @__func__.H5G__ent_decode_vec, i32 noundef 88, i64 noundef %52, i64 noundef %53, ptr noundef @.str.2)
  br label %55

55:                                               ; preds = %51
  store i8 1, ptr %13, align 1
  %56 = load i8, ptr %13, align 1
  %57 = trunc i8 %56 to i1
  %58 = zext i1 %57 to i8
  store i8 %58, ptr %13, align 1
  br label %59

59:                                               ; preds = %55
  br label %60

60:                                               ; preds = %59
  store i32 -1, ptr %12, align 4
  br label %68

61:                                               ; No predecessors!
  br label %62

62:                                               ; preds = %61
  br label %63

63:                                               ; preds = %62, %38
  br label %64

64:                                               ; preds = %63
  %65 = load i32, ptr %11, align 4
  %66 = add i32 %65, 1
  store i32 %66, ptr %11, align 4
  br label %14

67:                                               ; preds = %14
  br label %68

68:                                               ; preds = %67, %60, %35
  %69 = load i32, ptr %12, align 4
  ret i32 %69
}