; Function Attrs: nounwind uwtable
define range(i32 -1, 1) i32 @H5G__ent_decode_vec(ptr noundef %0, ptr noundef %1, ptr noundef %2, ptr noundef %3, i32 noundef %4) local_unnamed_addr #0 {
  %.not = icmp eq i32 %4, 0
  br i1 %.not, label %.loopexit, label %.lr.ph.preheader

.lr.ph.preheader:                                 ; preds = %5
  %wide.trip.count = zext i32 %4 to i64
  br label %.lr.ph

6:                                                ; preds = %13
  %indvars.iv.next = add nuw nsw i64 %indvars.iv, 1
  %exitcond.not = icmp eq i64 %indvars.iv.next, %wide.trip.count
  br i1 %exitcond.not, label %.loopexit, label %.lr.ph

.lr.ph:                                           ; preds = %.lr.ph.preheader, %6
  %indvars.iv = phi i64 [ 0, %.lr.ph.preheader ], [ %indvars.iv.next, %6 ]
  %7 = load ptr, ptr %1, align 8
  %8 = icmp ugt ptr %7, %2
  br i1 %8, label %9, label %13

9:                                                ; preds = %.lr.ph
  %10 = load i64, ptr @H5E_SYM_g, align 8
  %11 = load i64, ptr @H5E_CANTDECODE_g, align 8
  %12 = tail call i32 (ptr, ptr, i32, i64, i64, ptr, ...) @H5E_printf_stack(ptr noundef nonnull @.str, ptr noundef nonnull @__func__.H5G__ent_decode_vec, i32 noundef 86, i64 noundef %10, i64 noundef %11, ptr noundef nonnull @.str.1) #9
  br label %.loopexit

13:                                               ; preds = %.lr.ph
  %14 = getelementptr inbounds %struct.H5G_entry_t, ptr %3, i64 %indvars.iv
  %15 = tail call i32 @H5G_ent_decode(ptr noundef %0, ptr noundef nonnull %1, ptr noundef %14, ptr noundef %2)
  %16 = icmp slt i32 %15, 0
  br i1 %16, label %17, label %6

17:                                               ; preds = %13
  %18 = load i64, ptr @H5E_SYM_g, align 8
  %19 = load i64, ptr @H5E_CANTDECODE_g, align 8
  %20 = tail call i32 (ptr, ptr, i32, i64, i64, ptr, ...) @H5E_printf_stack(ptr noundef nonnull @.str, ptr noundef nonnull @__func__.H5G__ent_decode_vec, i32 noundef 88, i64 noundef %18, i64 noundef %19, ptr noundef nonnull @.str.2) #9
  br label %.loopexit

.loopexit:                                        ; preds = %6, %5, %17, %9
  %.0 = phi i32 [ -1, %9 ], [ -1, %17 ], [ 0, %5 ], [ 0, %6 ]
  ret i32 %.0
}